target datalayout = "e-m:e-p270:32:32-p271:32:32-p272:64:64-i64:64-i128:128-f80:128-n8:16:32:64-S128"
target triple = "x86_64-pc-linux-gnu"

%struct.TupleTableSlotOps = type { i64, ptr, ptr, ptr, ptr, ptr, ptr, ptr, ptr, ptr, ptr, ptr, ptr }
%struct.TupleTableSlot = type { i32, i16, i16, ptr, ptr, ptr, ptr, ptr, %struct.ItemPointerData, i32 }
%struct.ItemPointerData = type { %struct.BlockIdData, i16 }
%struct.BlockIdData = type { i16, i16 }
%struct.TupleDescData = type { i32, i32, i32, i32, ptr, [0 x %struct.CompactAttribute] }
%struct.CompactAttribute = type { i32, i16, i8, i8, i8, i8, i8, i8, i8 }

@CurrentMemoryContext = external global ptr, align 8

; Function Attrs: nounwind uwtable
define dso_local ptr @MakeTupleTableSlot(ptr noundef %0, ptr noundef %1) #0 {
  %3 = alloca ptr, align 8
  %4 = alloca ptr, align 8
  %5 = alloca i64, align 8
  %6 = alloca i64, align 8
  %7 = alloca ptr, align 8
  store ptr %0, ptr %3, align 8
  store ptr %1, ptr %4, align 8
  call void @llvm.lifetime.start.p0(i64 8, ptr %5) #10
  call void @llvm.lifetime.start.p0(i64 8, ptr %6) #10
  call void @llvm.lifetime.start.p0(i64 8, ptr %7) #10
  %8 = load ptr, ptr %4, align 8
  %9 = getelementptr inbounds nuw %struct.TupleTableSlotOps, ptr %8, i32 0, i32 0
  %10 = load i64, ptr %9, align 8
  store i64 %10, ptr %5, align 8
  %11 = load ptr, ptr %3, align 8
  %12 = icmp ne ptr %11, null
  br i1 %12, label %13, label %33

13:                                               ; preds = %2
  %14 = load i64, ptr %5, align 8
  %15 = add i64 %14, 7
  %16 = and i64 %15, -8
  %17 = load ptr, ptr %3, align 8
  %18 = getelementptr inbounds nuw %struct.TupleDescData, ptr %17, i32 0, i32 0
  %19 = load i32, ptr %18, align 8
  %20 = sext i32 %19 to i64
  %21 = mul i64 %20, 8
  %22 = add i64 %21, 7
  %23 = and i64 %22, -8
  %24 = add i64 %16, %23
  %25 = load ptr, ptr %3, align 8
  %26 = getelementptr inbounds nuw %struct.TupleDescData, ptr %25, i32 0, i32 0
  %27 = load i32, ptr %26, align 8
  %28 = sext i32 %27 to i64
  %29 = mul i64 %28, 1
  %30 = add i64 %29, 7
  %31 = and i64 %30, -8
  %32 = add i64 %24, %31
  store i64 %32, ptr %6, align 8
  br label %35

33:                                               ; preds = %2
  %34 = load i64, ptr %5, align 8
  store i64 %34, ptr %6, align 8
  br label %35

35:                                               ; preds = %33, %13
  %36 = load i64, ptr %6, align 8
  %37 = call ptr @palloc0(i64 noundef %36)
  store ptr %37, ptr %7, align 8
  %38 = load ptr, ptr %4, align 8
  %39 = load ptr, ptr %7, align 8
  %40 = getelementptr inbounds nuw %struct.TupleTableSlot, ptr %39, i32 0, i32 3
  store ptr %38, ptr %40, align 8
  %41 = load ptr, ptr %7, align 8
  %42 = getelementptr inbounds nuw %struct.TupleTableSlot, ptr %41, i32 0, i32 0
  store i32 442, ptr %42, align 8
  %43 = load ptr, ptr %7, align 8
  %44 = getelementptr inbounds nuw %struct.TupleTableSlot, ptr %43, i32 0, i32 1
  %45 = load i16, ptr %44, align 4
  %46 = zext i16 %45 to i32
  %47 = or i32 %46, 2
  %48 = trunc i32 %47 to i16
  store i16 %48, ptr %44, align 4
  %49 = load ptr, ptr %3, align 8
  %50 = icmp ne ptr %49, null
  br i1 %50, label %51, label %58

51:                                               ; preds = %35
  %52 = load ptr, ptr %7, align 8
  %53 = getelementptr inbounds nuw %struct.TupleTableSlot, ptr %52, i32 0, i32 1
  %54 = load i16, ptr %53, align 4
  %55 = zext i16 %54 to i32
  %56 = or i32 %55, 16
  %57 = trunc i32 %56 to i16
  store i16 %57, ptr %53, align 4
  br label %58

58:                                               ; preds = %51, %35
  %59 = load ptr, ptr %3, align 8
  %60 = load ptr, ptr %7, align 8
  %61 = getelementptr inbounds nuw %struct.TupleTableSlot, ptr %60, i32 0, i32 4
  store ptr %59, ptr %61, align 8
  %62 = load ptr, ptr @CurrentMemoryContext, align 8
  %63 = load ptr, ptr %7, align 8
  %64 = getelementptr inbounds nuw %struct.TupleTableSlot, ptr %63, i32 0, i32 7
  store ptr %62, ptr %64, align 8
  %65 = load ptr, ptr %7, align 8
  %66 = getelementptr inbounds nuw %struct.TupleTableSlot, ptr %65, i32 0, i32 2
  store i16 0, ptr %66, align 2
  %67 = load ptr, ptr %3, align 8
  %68 = icmp ne ptr %67, null
  br i1 %68, label %69, label %102

69:                                               ; preds = %58
  %70 = load ptr, ptr %7, align 8
  %71 = load i64, ptr %5, align 8
  %72 = add i64 %71, 7
  %73 = and i64 %72, -8
  %74 = getelementptr inbounds nuw i8, ptr %70, i64 %73
  %75 = load ptr, ptr %7, align 8
  %76 = getelementptr inbounds nuw %struct.TupleTableSlot, ptr %75, i32 0, i32 5
  store ptr %74, ptr %76, align 8
  %77 = load ptr, ptr %7, align 8
  %78 = load i64, ptr %5, align 8
  %79 = add i64 %78, 7
  %80 = and i64 %79, -8
  %81 = getelementptr inbounds nuw i8, ptr %77, i64 %80
  %82 = load ptr, ptr %3, align 8
  %83 = getelementptr inbounds nuw %struct.TupleDescData, ptr %82, i32 0, i32 0
  %84 = load i32, ptr %83, align 8
  %85 = sext i32 %84 to i64
  %86 = mul i64 %85, 8
  %87 = add i64 %86, 7
  %88 = and i64 %87, -8
  %89 = getelementptr inbounds nuw i8, ptr %81, i64 %88
  %90 = load ptr, ptr %7, align 8
  %91 = getelementptr inbounds nuw %struct.TupleTableSlot, ptr %90, i32 0, i32 6
  store ptr %89, ptr %91, align 8
  br label %92

92:                                               ; preds = %69
  %93 = load ptr, ptr %3, align 8
  %94 = getelementptr inbounds nuw %struct.TupleDescData, ptr %93, i32 0, i32 3
  %95 = load i32, ptr %94, align 4
  %96 = icmp sge i32 %95, 0
  br i1 %96, label %97, label %99

97:                                               ; preds = %92
  %98 = load ptr, ptr %3, align 8
  call void @IncrTupleDescRefCount(ptr noundef %98)
  br label %99

99:                                               ; preds = %97, %92
  br label %100

100:                                              ; preds = %99
  br label %101

101:                                              ; preds = %100
  br label %102

102:                                              ; preds = %101, %58
  %103 = load ptr, ptr %7, align 8
  %104 = getelementptr inbounds nuw %struct.TupleTableSlot, ptr %103, i32 0, i32 3
  %105 = load ptr, ptr %104, align 8
  %106 = getelementptr inbounds nuw %struct.TupleTableSlotOps, ptr %105, i32 0, i32 1
  %107 = load ptr, ptr %106, align 8
  %108 = load ptr, ptr %7, align 8
  call void %107(ptr noundef %108)
  %109 = load ptr, ptr %7, align 8
  call void @llvm.lifetime.end.p0(i64 8, ptr %7) #10
  call void @llvm.lifetime.end.p0(i64 8, ptr %6) #10
  call void @llvm.lifetime.end.p0(i64 8, ptr %5) #10
  ret ptr %109
}