; Function Attrs: nounwind uwtable
define dso_local noundef ptr @MakeTupleTableSlot(ptr noundef %0, ptr noundef %1) local_unnamed_addr #1 {
  %3 = load i64, ptr %1, align 8
  %.not = icmp eq ptr %0, null
  br i1 %.not, label %14, label %4

4:                                                ; preds = %2
  %5 = add i64 %3, 7
  %6 = and i64 %5, -8
  %7 = load i32, ptr %0, align 8
  %8 = sext i32 %7 to i64
  %9 = shl nsw i64 %8, 3
  %10 = add i64 %9, %6
  %11 = add nsw i64 %8, 7
  %12 = and i64 %11, -8
  %13 = add i64 %10, %12
  br label %14

14:                                               ; preds = %2, %4
  %spec.select.v = phi i16 [ 18, %4 ], [ 2, %2 ]
  %.0 = phi i64 [ %13, %4 ], [ %3, %2 ]
  %15 = tail call ptr @palloc0(i64 noundef %.0) #14
  %16 = getelementptr inbounds nuw i8, ptr %15, i64 8
  store ptr %1, ptr %16, align 8
  store i32 442, ptr %15, align 8
  %17 = getelementptr inbounds nuw i8, ptr %15, i64 4
  %18 = load i16, ptr %17, align 4
  %spec.select = or i16 %18, %spec.select.v
  store i16 %spec.select, ptr %17, align 4
  %19 = getelementptr inbounds nuw i8, ptr %15, i64 16
  store ptr %0, ptr %19, align 8
  %20 = load ptr, ptr @CurrentMemoryContext, align 8
  %21 = getelementptr inbounds nuw i8, ptr %15, i64 40
  store ptr %20, ptr %21, align 8
  %22 = getelementptr inbounds nuw i8, ptr %15, i64 6
  store i16 0, ptr %22, align 2
  br i1 %.not, label %37, label %23

23:                                               ; preds = %14
  %24 = add i64 %3, 7
  %25 = and i64 %24, -8
  %26 = getelementptr inbounds nuw i8, ptr %15, i64 %25
  %27 = getelementptr inbounds nuw i8, ptr %15, i64 24
  store ptr %26, ptr %27, align 8
  %28 = load i32, ptr %0, align 8
  %29 = sext i32 %28 to i64
  %30 = shl nsw i64 %29, 3
  %31 = getelementptr inbounds nuw i8, ptr %26, i64 %30
  %32 = getelementptr inbounds nuw i8, ptr %15, i64 32
  store ptr %31, ptr %32, align 8
  %33 = getelementptr inbounds nuw i8, ptr %0, i64 12
  %34 = load i32, ptr %33, align 4
  %35 = icmp sgt i32 %34, -1
  br i1 %35, label %36, label %37

36:                                               ; preds = %23
  tail call void @IncrTupleDescRefCount(ptr noundef nonnull %0) #14
  %.pre = load ptr, ptr %16, align 8
  br label %37

37:                                               ; preds = %23, %36, %14
  %38 = phi ptr [ %1, %23 ], [ %.pre, %36 ], [ %1, %14 ]
  %39 = getelementptr inbounds nuw i8, ptr %38, i64 8
  %40 = load ptr, ptr %39, align 8
  tail call void %40(ptr noundef nonnull %15) #14
  ret ptr %15
}